; Function Attrs: mustprogress nofree norecurse nosync nounwind willreturn memory(argmem: readwrite, inaccessiblemem: readwrite) uwtable
define void @_ZThn8_N3gmx10EnergyData7Element32registerTrajectoryWriterCallbackENS_15TrajectoryEventE(ptr dead_on_unwind noalias writable writeonly sret(%"class.std::optional.27") align 8 captures(none) initializes((32, 33)) %0, ptr noundef %1, i32 noundef %2) unnamed_addr #7 align 2 personality ptr @__gxx_personality_v0 {
  %4 = getelementptr inbounds i8, ptr %1, i64 -8
  tail call void @llvm.experimental.noalias.scope.decl(metadata !125)
  %5 = icmp eq i32 %2, 1
  br i1 %5, label %6, label %_ZN3gmx10EnergyData7Element32registerTrajectoryWriterCallbackENS_15TrajectoryEventE.exit

6:                                                ; preds = %3
  %7 = getelementptr inbounds nuw i8, ptr %1, i64 72
  %8 = load i8, ptr %7, align 8, !tbaa !4, !range !21, !noalias !125, !noundef !22
  %9 = trunc nuw i8 %8 to i1
  br i1 %9, label %10, label %_ZN3gmx10EnergyData7Element32registerTrajectoryWriterCallbackENS_15TrajectoryEventE.exit

10:                                               ; preds = %6
  %11 = ptrtoint ptr %4 to i64
  %12 = getelementptr inbounds nuw i8, ptr %0, i64 16
  %13 = getelementptr inbounds nuw i8, ptr %0, i64 24
  %14 = getelementptr inbounds nuw i8, ptr %0, i64 8
  store i64 0, ptr %14, align 8, !alias.scope !125
  store i64 %11, ptr %0, align 8, !tbaa !27, !alias.scope !125
  store ptr @"_ZNSt17_Function_handlerIFvP10gmx_mdoutfldbbEZN3gmx10EnergyData7Element32registerTrajectoryWriterCallbackENS3_15TrajectoryEventEE3$_0E9_M_invokeERKSt9_Any_dataOS1_OlOdObSF_", ptr %13, align 8, !tbaa !121, !alias.scope !125
  store ptr @"_ZNSt17_Function_handlerIFvP10gmx_mdoutfldbbEZN3gmx10EnergyData7Element32registerTrajectoryWriterCallbackENS3_15TrajectoryEventEE3$_0E10_M_managerERSt9_Any_dataRKS9_St18_Manager_operation", ptr %12, align 8, !tbaa !37, !alias.scope !125
  br label %_ZN3gmx10EnergyData7Element32registerTrajectoryWriterCallbackENS_15TrajectoryEventE.exit

_ZN3gmx10EnergyData7Element32registerTrajectoryWriterCallbackENS_15TrajectoryEventE.exit: ; preds = %3, %6, %10
  %.sink.i = phi i8 [ 1, %10 ], [ 0, %6 ], [ 0, %3 ]
  %15 = getelementptr inbounds nuw i8, ptr %0, i64 32
  store i8 %.sink.i, ptr %15, align 8, !tbaa !123, !alias.scope !125
  ret void
}